; Function Attrs: nounwind uwtable
define noundef nonnull ptr @l_Std_DHashMap_Internal_AssocList_contains___at_Lake_importModulesUsingCache___spec__1___boxed(ptr noundef %0, ptr noundef %1) local_unnamed_addr #0 {
  %3 = getelementptr i8, ptr %0, i64 8
  br label %.backedge.i

.backedge.i:                                      ; preds = %.backedge.i.backedge, %2
  %.021.i = phi ptr [ %1, %2 ], [ %16, %.backedge.i.backedge ]
  %4 = ptrtoint ptr %.021.i to i64
  %5 = and i64 %4, 1
  %.not.i30.i = icmp eq i64 %5, 0
  br i1 %.not.i30.i, label %9, label %6

6:                                                ; preds = %.backedge.i
  %7 = lshr i64 %4, 1
  %8 = trunc i64 %7 to i32
  br label %lean_obj_tag.exit.i

9:                                                ; preds = %.backedge.i
  %10 = getelementptr i8, ptr %.021.i, i64 4
  %.val.i.i = load i32, ptr %10, align 4
  %11 = lshr i32 %.val.i.i, 24
  br label %lean_obj_tag.exit.i

lean_obj_tag.exit.i:                              ; preds = %9, %6
  %.0.i31.i = phi i32 [ %8, %6 ], [ %11, %9 ]
  %12 = icmp eq i32 %.0.i31.i, 0
  br i1 %12, label %l_Std_DHashMap_Internal_AssocList_contains___at_Lake_importModulesUsingCache___spec__1.exit, label %lean_dec.exit26.i

lean_dec.exit26.i:                                ; preds = %lean_obj_tag.exit.i
  %13 = getelementptr inbounds nuw i8, ptr %.021.i, i64 8
  %14 = load ptr, ptr %13, align 8, !tbaa !4
  %15 = getelementptr inbounds nuw i8, ptr %.021.i, i64 24
  %16 = load ptr, ptr %15, align 8, !tbaa !4
  %17 = getelementptr i8, ptr %14, i64 8
  %.val29.i = load i64, ptr %17, align 8, !tbaa !13
  %18 = shl i64 %.val29.i, 1
  %.val.i = load i64, ptr %3, align 8, !tbaa !13
  %19 = shl i64 %.val.i, 1
  %.not.i8 = icmp eq i64 %18, %19
  br i1 %.not.i8, label %20, label %.backedge.i.backedge

20:                                               ; preds = %lean_dec.exit26.i
  %21 = or disjoint i64 %18, 1
  %22 = inttoptr i64 %21 to ptr
  %23 = tail call zeroext i8 @l_Array_isEqvAux___at_Lake_importModulesUsingCache___spec__2(ptr nonnull readonly poison, ptr nonnull poison, ptr nonnull poison, ptr noundef nonnull %14, ptr noundef nonnull readonly %0, ptr noundef nonnull %22, ptr nonnull poison)
  %.not32.i = icmp eq i8 %23, 0
  br i1 %.not32.i, label %.backedge.i.backedge, label %l_Std_DHashMap_Internal_AssocList_contains___at_Lake_importModulesUsingCache___spec__1.exit

.backedge.i.backedge:                             ; preds = %20, %lean_dec.exit26.i
  br label %.backedge.i

l_Std_DHashMap_Internal_AssocList_contains___at_Lake_importModulesUsingCache___spec__1.exit: ; preds = %lean_obj_tag.exit.i, %20
  %.1.i = phi i64 [ 1, %lean_obj_tag.exit.i ], [ 3, %20 ]
  %24 = ptrtoint ptr %1 to i64
  %25 = and i64 %24, 1
  %.not = icmp eq i64 %25, 0
  br i1 %.not, label %26, label %lean_dec.exit5

26:                                               ; preds = %l_Std_DHashMap_Internal_AssocList_contains___at_Lake_importModulesUsingCache___spec__1.exit
  %27 = load i32, ptr %1, align 4, !tbaa !9
  %28 = icmp sgt i32 %27, 1
  br i1 %28, label %29, label %31, !prof !12

29:                                               ; preds = %26
  %30 = add nsw i32 %27, -1
  store i32 %30, ptr %1, align 4, !tbaa !9
  br label %lean_dec.exit5

31:                                               ; preds = %26
  %.not.i = icmp eq i32 %27, 0
  br i1 %.not.i, label %lean_dec.exit5, label %32

32:                                               ; preds = %31
  tail call void @lean_dec_ref_cold(ptr noundef nonnull %1) #5
  br label %lean_dec.exit5

lean_dec.exit5:                                   ; preds = %32, %31, %29, %l_Std_DHashMap_Internal_AssocList_contains___at_Lake_importModulesUsingCache___spec__1.exit
  %33 = ptrtoint ptr %0 to i64
  %34 = and i64 %33, 1
  %.not9 = icmp eq i64 %34, 0
  br i1 %.not9, label %35, label %lean_dec.exit

35:                                               ; preds = %lean_dec.exit5
  %36 = load i32, ptr %0, align 4, !tbaa !9
  %37 = icmp sgt i32 %36, 1
  br i1 %37, label %38, label %40, !prof !12

38:                                               ; preds = %35
  %39 = add nsw i32 %36, -1
  store i32 %39, ptr %0, align 4, !tbaa !9
  br label %lean_dec.exit

40:                                               ; preds = %35
  %.not.i6 = icmp eq i32 %36, 0
  br i1 %.not.i6, label %lean_dec.exit, label %41

41:                                               ; preds = %40
  tail call void @lean_dec_ref_cold(ptr noundef nonnull %0) #5
  br label %lean_dec.exit

lean_dec.exit:                                    ; preds = %41, %40, %38, %lean_dec.exit5
  %42 = inttoptr i64 %.1.i to ptr
  ret ptr %42
}